target datalayout = "e-m:e-p270:32:32-p271:32:32-p272:64:64-i64:64-i128:128-f80:128-n8:16:32:64-S128"
target triple = "x86_64-pc-linux-gnu"

%class.btVector3 = type { [4 x float] }

; Function Attrs: inlinehint mustprogress nounwind uwtable
define linkonce_odr dso_local void @_ZN9btVector34setZEf(ptr noundef nonnull align 4 dereferenceable(16) %0, float noundef %1) #5 comdat align 2 {
  %3 = alloca ptr, align 8
  %4 = alloca float, align 4
  store ptr %0, ptr %3, align 8, !tbaa !48
  store float %1, ptr %4, align 4, !tbaa !46
  %5 = load ptr, ptr %3, align 8
  %6 = load float, ptr %4, align 4, !tbaa !46
  %7 = getelementptr inbounds nuw %class.btVector3, ptr %5, i32 0, i32 0
  %8 = getelementptr inbounds [4 x float], ptr %7, i64 0, i64 2
  store float %6, ptr %8, align 4, !tbaa !46
  ret void
}

; Function Attrs: inlinehint mustprogress nounwind uwtable
define linkonce_odr dso_local noundef nonnull align 4 dereferenceable(4) ptr @_ZNK9btVector34getZEv(ptr noundef nonnull align 4 dereferenceable(16) %0) #5 comdat align 2 {
  %2 = alloca ptr, align 8
  store ptr %0, ptr %2, align 8, !tbaa !48
  %3 = load ptr, ptr %2, align 8
  %4 = getelementptr inbounds nuw %class.btVector3, ptr %3, i32 0, i32 0
  %5 = getelementptr inbounds [4 x float], ptr %4, i64 0, i64 2
  ret ptr %5
}

; Function Attrs: inlinehint mustprogress nounwind uwtable
define linkonce_odr dso_local void @_ZN9btVector34setYEf(ptr noundef nonnull align 4 dereferenceable(16) %0, float noundef %1) #5 comdat align 2 {
  %3 = alloca ptr, align 8
  %4 = alloca float, align 4
  store ptr %0, ptr %3, align 8, !tbaa !48
  store float %1, ptr %4, align 4, !tbaa !46
  %5 = load ptr, ptr %3, align 8
  %6 = load float, ptr %4, align 4, !tbaa !46
  %7 = getelementptr inbounds nuw %class.btVector3, ptr %5, i32 0, i32 0
  %8 = getelementptr inbounds [4 x float], ptr %7, i64 0, i64 1
  store float %6, ptr %8, align 4, !tbaa !46
  ret void
}

; Function Attrs: inlinehint mustprogress nounwind uwtable
define linkonce_odr dso_local noundef nonnull align 4 dereferenceable(4) ptr @_ZNK9btVector34getYEv(ptr noundef nonnull align 4 dereferenceable(16) %0) #5 comdat align 2 {
  %2 = alloca ptr, align 8
  store ptr %0, ptr %2, align 8, !tbaa !48
  %3 = load ptr, ptr %2, align 8
  %4 = getelementptr inbounds nuw %class.btVector3, ptr %3, i32 0, i32 0
  %5 = getelementptr inbounds [4 x float], ptr %4, i64 0, i64 1
  ret ptr %5
}

; Function Attrs: inlinehint mustprogress nounwind uwtable
define linkonce_odr dso_local void @_ZN9btVector38setValueERKfS1_S1_(ptr noundef nonnull align 4 dereferenceable(16) %0, ptr noundef nonnull align 4 dereferenceable(4) %1, ptr noundef nonnull align 4 dereferenceable(4) %2, ptr noundef nonnull align 4 dereferenceable(4) %3) #5 comdat align 2 {
  %5 = alloca ptr, align 8
  %6 = alloca ptr, align 8
  %7 = alloca ptr, align 8
  %8 = alloca ptr, align 8
  store ptr %0, ptr %5, align 8, !tbaa !48
  store ptr %1, ptr %6, align 8, !tbaa !56
  store ptr %2, ptr %7, align 8, !tbaa !56
  store ptr %3, ptr %8, align 8, !tbaa !56
  %9 = load ptr, ptr %5, align 8
  %10 = load ptr, ptr %6, align 8, !tbaa !56
  %11 = load float, ptr %10, align 4, !tbaa !46
  %12 = getelementptr inbounds nuw %class.btVector3, ptr %9, i32 0, i32 0
  %13 = getelementptr inbounds [4 x float], ptr %12, i64 0, i64 0
  store float %11, ptr %13, align 4, !tbaa !46
  %14 = load ptr, ptr %7, align 8, !tbaa !56
  %15 = load float, ptr %14, align 4, !tbaa !46
  %16 = getelementptr inbounds nuw %class.btVector3, ptr %9, i32 0, i32 0
  %17 = getelementptr inbounds [4 x float], ptr %16, i64 0, i64 1
  store float %15, ptr %17, align 4, !tbaa !46
  %18 = load ptr, ptr %8, align 8, !tbaa !56
  %19 = load float, ptr %18, align 4, !tbaa !46
  %20 = getelementptr inbounds nuw %class.btVector3, ptr %9, i32 0, i32 0
  %21 = getelementptr inbounds [4 x float], ptr %20, i64 0, i64 2
  store float %19, ptr %21, align 4, !tbaa !46
  %22 = getelementptr inbounds nuw %class.btVector3, ptr %9, i32 0, i32 0
  %23 = getelementptr inbounds [4 x float], ptr %22, i64 0, i64 3
  store float 0.000000e+00, ptr %23, align 4, !tbaa !46
  ret void
}

; Function Attrs: inlinehint mustprogress nounwind uwtable
define linkonce_odr dso_local void @_ZN9btVector34setXEf(ptr noundef nonnull align 4 dereferenceable(16) %0, float noundef %1) #5 comdat align 2 {
  %3 = alloca ptr, align 8
  %4 = alloca float, align 4
  store ptr %0, ptr %3, align 8, !tbaa !48
  store float %1, ptr %4, align 4, !tbaa !46
  %5 = load ptr, ptr %3, align 8
  %6 = load float, ptr %4, align 4, !tbaa !46
  %7 = getelementptr inbounds nuw %class.btVector3, ptr %5, i32 0, i32 0
  %8 = getelementptr inbounds [4 x float], ptr %7, i64 0, i64 0
  store float %6, ptr %8, align 4, !tbaa !46
  ret void
}

; Function Attrs: inlinehint mustprogress nounwind uwtable
define linkonce_odr dso_local noundef nonnull align 4 dereferenceable(4) ptr @_ZNK9btVector34getXEv(ptr noundef nonnull align 4 dereferenceable(16) %0) #5 comdat align 2 {
  %2 = alloca ptr, align 8
  store ptr %0, ptr %2, align 8, !tbaa !48
  %3 = load ptr, ptr %2, align 8
  %4 = getelementptr inbounds nuw %class.btVector3, ptr %3, i32 0, i32 0
  %5 = getelementptr inbounds [4 x float], ptr %4, i64 0, i64 0
  ret ptr %5
}

; Function Attrs: mustprogress uwtable
define dso_local noundef float @_ZN29btSphereBoxCollisionAlgorithm20getSpherePenetrationERK9btVector3S2_RS0_S3_(ptr noundef nonnull align 8 dereferenceable(33) %0, ptr noundef nonnull align 4 dereferenceable(16) %1, ptr noundef nonnull align 4 dereferenceable(16) %2, ptr noundef nonnull align 4 dereferenceable(16) %3, ptr noundef nonnull align 4 dereferenceable(16) %4) #2 align 2 {
  %6 = alloca ptr, align 8
  %7 = alloca ptr, align 8
  %8 = alloca ptr, align 8
  %9 = alloca ptr, align 8
  %10 = alloca ptr, align 8
  %11 = alloca float, align 4
  %12 = alloca float, align 4
  %13 = alloca float, align 4
  %14 = alloca float, align 4
  %15 = alloca float, align 4
  %16 = alloca float, align 4
  %17 = alloca float, align 4
  %18 = alloca float, align 4
  %19 = alloca float, align 4
  %20 = alloca float, align 4
  %21 = alloca float, align 4
  %22 = alloca float, align 4
  %23 = alloca float, align 4
  %24 = alloca float, align 4
  %25 = alloca float, align 4
  %26 = alloca float, align 4
  %27 = alloca float, align 4
  %28 = alloca float, align 4
  %29 = alloca float, align 4
  %30 = alloca float, align 4
  store ptr %0, ptr %6, align 8, !tbaa !12
  store ptr %1, ptr %7, align 8, !tbaa !48
  store ptr %2, ptr %8, align 8, !tbaa !48
  store ptr %3, ptr %9, align 8, !tbaa !48
  store ptr %4, ptr %10, align 8, !tbaa !48
  call void @llvm.lifetime.start.p0(i64 4, ptr %11) #14
  %31 = load ptr, ptr %7, align 8, !tbaa !48
  %32 = call noundef nonnull align 4 dereferenceable(4) ptr @_ZNK9btVector34getXEv(ptr noundef nonnull align 4 dereferenceable(16) %31)
  %33 = load float, ptr %32, align 4, !tbaa !46
  %34 = load ptr, ptr %8, align 8, !tbaa !48
  %35 = call noundef nonnull align 4 dereferenceable(4) ptr @_ZNK9btVector34getXEv(ptr noundef nonnull align 4 dereferenceable(16) %34)
  %36 = load float, ptr %35, align 4, !tbaa !46
  %37 = fsub float %33, %36
  store float %37, ptr %11, align 4, !tbaa !46
  call void @llvm.lifetime.start.p0(i64 4, ptr %12) #14
  %38 = load float, ptr %11, align 4, !tbaa !46
  store float %38, ptr %12, align 4, !tbaa !46
  %39 = load ptr, ptr %9, align 8, !tbaa !48
  %40 = load ptr, ptr %7, align 8, !tbaa !48
  %41 = call noundef nonnull align 4 dereferenceable(4) ptr @_ZNK9btVector34getXEv(ptr noundef nonnull align 4 dereferenceable(16) %40)
  %42 = load float, ptr %41, align 4, !tbaa !46
  call void @_ZN9btVector34setXEf(ptr noundef nonnull align 4 dereferenceable(16) %39, float noundef %42)
  %43 = load ptr, ptr %10, align 8, !tbaa !48
  call void @llvm.lifetime.start.p0(i64 4, ptr %13) #14
  store float 1.000000e+00, ptr %13, align 4, !tbaa !46
  call void @llvm.lifetime.start.p0(i64 4, ptr %14) #14
  store float 0.000000e+00, ptr %14, align 4, !tbaa !46
  call void @llvm.lifetime.start.p0(i64 4, ptr %15) #14
  store float 0.000000e+00, ptr %15, align 4, !tbaa !46
  call void @_ZN9btVector38setValueERKfS1_S1_(ptr noundef nonnull align 4 dereferenceable(16) %43, ptr noundef nonnull align 4 dereferenceable(4) %13, ptr noundef nonnull align 4 dereferenceable(4) %14, ptr noundef nonnull align 4 dereferenceable(4) %15)
  call void @llvm.lifetime.end.p0(i64 4, ptr %15) #14
  call void @llvm.lifetime.end.p0(i64 4, ptr %14) #14
  call void @llvm.lifetime.end.p0(i64 4, ptr %13) #14
  %44 = load ptr, ptr %7, align 8, !tbaa !48
  %45 = call noundef nonnull align 4 dereferenceable(4) ptr @_ZNK9btVector34getXEv(ptr noundef nonnull align 4 dereferenceable(16) %44)
  %46 = load float, ptr %45, align 4, !tbaa !46
  %47 = load ptr, ptr %8, align 8, !tbaa !48
  %48 = call noundef nonnull align 4 dereferenceable(4) ptr @_ZNK9btVector34getXEv(ptr noundef nonnull align 4 dereferenceable(16) %47)
  %49 = load float, ptr %48, align 4, !tbaa !46
  %50 = fadd float %46, %49
  store float %50, ptr %11, align 4, !tbaa !46
  %51 = load float, ptr %11, align 4, !tbaa !46
  %52 = load float, ptr %12, align 4, !tbaa !46
  %53 = fcmp olt float %51, %52
  br i1 %53, label %54, label %64

54:                                               ; preds = %5
  %55 = load float, ptr %11, align 4, !tbaa !46
  store float %55, ptr %12, align 4, !tbaa !46
  %56 = load ptr, ptr %8, align 8, !tbaa !48
  %57 = load ptr, ptr %9, align 8, !tbaa !48
  call void @llvm.memcpy.p0.p0.i64(ptr align 4 %57, ptr align 4 %56, i64 16, i1 false), !tbaa.struct !43
  %58 = load ptr, ptr %9, align 8, !tbaa !48
  %59 = load ptr, ptr %7, align 8, !tbaa !48
  %60 = call noundef nonnull align 4 dereferenceable(4) ptr @_ZNK9btVector34getXEv(ptr noundef nonnull align 4 dereferenceable(16) %59)
  %61 = load float, ptr %60, align 4, !tbaa !46
  %62 = fneg float %61
  call void @_ZN9btVector34setXEf(ptr noundef nonnull align 4 dereferenceable(16) %58, float noundef %62)
  %63 = load ptr, ptr %10, align 8, !tbaa !48
  call void @llvm.lifetime.start.p0(i64 4, ptr %16) #14
  store float -1.000000e+00, ptr %16, align 4, !tbaa !46
  call void @llvm.lifetime.start.p0(i64 4, ptr %17) #14
  store float 0.000000e+00, ptr %17, align 4, !tbaa !46
  call void @llvm.lifetime.start.p0(i64 4, ptr %18) #14
  store float 0.000000e+00, ptr %18, align 4, !tbaa !46
  call void @_ZN9btVector38setValueERKfS1_S1_(ptr noundef nonnull align 4 dereferenceable(16) %63, ptr noundef nonnull align 4 dereferenceable(4) %16, ptr noundef nonnull align 4 dereferenceable(4) %17, ptr noundef nonnull align 4 dereferenceable(4) %18)
  call void @llvm.lifetime.end.p0(i64 4, ptr %18) #14
  call void @llvm.lifetime.end.p0(i64 4, ptr %17) #14
  call void @llvm.lifetime.end.p0(i64 4, ptr %16) #14
  br label %64

64:                                               ; preds = %54, %5
  %65 = load ptr, ptr %7, align 8, !tbaa !48
  %66 = call noundef nonnull align 4 dereferenceable(4) ptr @_ZNK9btVector34getYEv(ptr noundef nonnull align 4 dereferenceable(16) %65)
  %67 = load float, ptr %66, align 4, !tbaa !46
  %68 = load ptr, ptr %8, align 8, !tbaa !48
  %69 = call noundef nonnull align 4 dereferenceable(4) ptr @_ZNK9btVector34getYEv(ptr noundef nonnull align 4 dereferenceable(16) %68)
  %70 = load float, ptr %69, align 4, !tbaa !46
  %71 = fsub float %67, %70
  store float %71, ptr %11, align 4, !tbaa !46
  %72 = load float, ptr %11, align 4, !tbaa !46
  %73 = load float, ptr %12, align 4, !tbaa !46
  %74 = fcmp olt float %72, %73
  br i1 %74, label %75, label %84

75:                                               ; preds = %64
  %76 = load float, ptr %11, align 4, !tbaa !46
  store float %76, ptr %12, align 4, !tbaa !46
  %77 = load ptr, ptr %8, align 8, !tbaa !48
  %78 = load ptr, ptr %9, align 8, !tbaa !48
  call void @llvm.memcpy.p0.p0.i64(ptr align 4 %78, ptr align 4 %77, i64 16, i1 false), !tbaa.struct !43
  %79 = load ptr, ptr %9, align 8, !tbaa !48
  %80 = load ptr, ptr %7, align 8, !tbaa !48
  %81 = call noundef nonnull align 4 dereferenceable(4) ptr @_ZNK9btVector34getYEv(ptr noundef nonnull align 4 dereferenceable(16) %80)
  %82 = load float, ptr %81, align 4, !tbaa !46
  call void @_ZN9btVector34setYEf(ptr noundef nonnull align 4 dereferenceable(16) %79, float noundef %82)
  %83 = load ptr, ptr %10, align 8, !tbaa !48
  call void @llvm.lifetime.start.p0(i64 4, ptr %19) #14
  store float 0.000000e+00, ptr %19, align 4, !tbaa !46
  call void @llvm.lifetime.start.p0(i64 4, ptr %20) #14
  store float 1.000000e+00, ptr %20, align 4, !tbaa !46
  call void @llvm.lifetime.start.p0(i64 4, ptr %21) #14
  store float 0.000000e+00, ptr %21, align 4, !tbaa !46
  call void @_ZN9btVector38setValueERKfS1_S1_(ptr noundef nonnull align 4 dereferenceable(16) %83, ptr noundef nonnull align 4 dereferenceable(4) %19, ptr noundef nonnull align 4 dereferenceable(4) %20, ptr noundef nonnull align 4 dereferenceable(4) %21)
  call void @llvm.lifetime.end.p0(i64 4, ptr %21) #14
  call void @llvm.lifetime.end.p0(i64 4, ptr %20) #14
  call void @llvm.lifetime.end.p0(i64 4, ptr %19) #14
  br label %84

84:                                               ; preds = %75, %64
  %85 = load ptr, ptr %7, align 8, !tbaa !48
  %86 = call noundef nonnull align 4 dereferenceable(4) ptr @_ZNK9btVector34getYEv(ptr noundef nonnull align 4 dereferenceable(16) %85)
  %87 = load float, ptr %86, align 4, !tbaa !46
  %88 = load ptr, ptr %8, align 8, !tbaa !48
  %89 = call noundef nonnull align 4 dereferenceable(4) ptr @_ZNK9btVector34getYEv(ptr noundef nonnull align 4 dereferenceable(16) %88)
  %90 = load float, ptr %89, align 4, !tbaa !46
  %91 = fadd float %87, %90
  store float %91, ptr %11, align 4, !tbaa !46
  %92 = load float, ptr %11, align 4, !tbaa !46
  %93 = load float, ptr %12, align 4, !tbaa !46
  %94 = fcmp olt float %92, %93
  br i1 %94, label %95, label %105

95:                                               ; preds = %84
  %96 = load float, ptr %11, align 4, !tbaa !46
  store float %96, ptr %12, align 4, !tbaa !46
  %97 = load ptr, ptr %8, align 8, !tbaa !48
  %98 = load ptr, ptr %9, align 8, !tbaa !48
  call void @llvm.memcpy.p0.p0.i64(ptr align 4 %98, ptr align 4 %97, i64 16, i1 false), !tbaa.struct !43
  %99 = load ptr, ptr %9, align 8, !tbaa !48
  %100 = load ptr, ptr %7, align 8, !tbaa !48
  %101 = call noundef nonnull align 4 dereferenceable(4) ptr @_ZNK9btVector34getYEv(ptr noundef nonnull align 4 dereferenceable(16) %100)
  %102 = load float, ptr %101, align 4, !tbaa !46
  %103 = fneg float %102
  call void @_ZN9btVector34setYEf(ptr noundef nonnull align 4 dereferenceable(16) %99, float noundef %103)
  %104 = load ptr, ptr %10, align 8, !tbaa !48
  call void @llvm.lifetime.start.p0(i64 4, ptr %22) #14
  store float 0.000000e+00, ptr %22, align 4, !tbaa !46
  call void @llvm.lifetime.start.p0(i64 4, ptr %23) #14
  store float -1.000000e+00, ptr %23, align 4, !tbaa !46
  call void @llvm.lifetime.start.p0(i64 4, ptr %24) #14
  store float 0.000000e+00, ptr %24, align 4, !tbaa !46
  call void @_ZN9btVector38setValueERKfS1_S1_(ptr noundef nonnull align 4 dereferenceable(16) %104, ptr noundef nonnull align 4 dereferenceable(4) %22, ptr noundef nonnull align 4 dereferenceable(4) %23, ptr noundef nonnull align 4 dereferenceable(4) %24)
  call void @llvm.lifetime.end.p0(i64 4, ptr %24) #14
  call void @llvm.lifetime.end.p0(i64 4, ptr %23) #14
  call void @llvm.lifetime.end.p0(i64 4, ptr %22) #14
  br label %105

105:                                              ; preds = %95, %84
  %106 = load ptr, ptr %7, align 8, !tbaa !48
  %107 = call noundef nonnull align 4 dereferenceable(4) ptr @_ZNK9btVector34getZEv(ptr noundef nonnull align 4 dereferenceable(16) %106)
  %108 = load float, ptr %107, align 4, !tbaa !46
  %109 = load ptr, ptr %8, align 8, !tbaa !48
  %110 = call noundef nonnull align 4 dereferenceable(4) ptr @_ZNK9btVector34getZEv(ptr noundef nonnull align 4 dereferenceable(16) %109)
  %111 = load float, ptr %110, align 4, !tbaa !46
  %112 = fsub float %108, %111
  store float %112, ptr %11, align 4, !tbaa !46
  %113 = load float, ptr %11, align 4, !tbaa !46
  %114 = load float, ptr %12, align 4, !tbaa !46
  %115 = fcmp olt float %113, %114
  br i1 %115, label %116, label %125

116:                                              ; preds = %105
  %117 = load float, ptr %11, align 4, !tbaa !46
  store float %117, ptr %12, align 4, !tbaa !46
  %118 = load ptr, ptr %8, align 8, !tbaa !48
  %119 = load ptr, ptr %9, align 8, !tbaa !48
  call void @llvm.memcpy.p0.p0.i64(ptr align 4 %119, ptr align 4 %118, i64 16, i1 false), !tbaa.struct !43
  %120 = load ptr, ptr %9, align 8, !tbaa !48
  %121 = load ptr, ptr %7, align 8, !tbaa !48
  %122 = call noundef nonnull align 4 dereferenceable(4) ptr @_ZNK9btVector34getZEv(ptr noundef nonnull align 4 dereferenceable(16) %121)
  %123 = load float, ptr %122, align 4, !tbaa !46
  call void @_ZN9btVector34setZEf(ptr noundef nonnull align 4 dereferenceable(16) %120, float noundef %123)
  %124 = load ptr, ptr %10, align 8, !tbaa !48
  call void @llvm.lifetime.start.p0(i64 4, ptr %25) #14
  store float 0.000000e+00, ptr %25, align 4, !tbaa !46
  call void @llvm.lifetime.start.p0(i64 4, ptr %26) #14
  store float 0.000000e+00, ptr %26, align 4, !tbaa !46
  call void @llvm.lifetime.start.p0(i64 4, ptr %27) #14
  store float 1.000000e+00, ptr %27, align 4, !tbaa !46
  call void @_ZN9btVector38setValueERKfS1_S1_(ptr noundef nonnull align 4 dereferenceable(16) %124, ptr noundef nonnull align 4 dereferenceable(4) %25, ptr noundef nonnull align 4 dereferenceable(4) %26, ptr noundef nonnull align 4 dereferenceable(4) %27)
  call void @llvm.lifetime.end.p0(i64 4, ptr %27) #14
  call void @llvm.lifetime.end.p0(i64 4, ptr %26) #14
  call void @llvm.lifetime.end.p0(i64 4, ptr %25) #14
  br label %125

125:                                              ; preds = %116, %105
  %126 = load ptr, ptr %7, align 8, !tbaa !48
  %127 = call noundef nonnull align 4 dereferenceable(4) ptr @_ZNK9btVector34getZEv(ptr noundef nonnull align 4 dereferenceable(16) %126)
  %128 = load float, ptr %127, align 4, !tbaa !46
  %129 = load ptr, ptr %8, align 8, !tbaa !48
  %130 = call noundef nonnull align 4 dereferenceable(4) ptr @_ZNK9btVector34getZEv(ptr noundef nonnull align 4 dereferenceable(16) %129)
  %131 = load float, ptr %130, align 4, !tbaa !46
  %132 = fadd float %128, %131
  store float %132, ptr %11, align 4, !tbaa !46
  %133 = load float, ptr %11, align 4, !tbaa !46
  %134 = load float, ptr %12, align 4, !tbaa !46
  %135 = fcmp olt float %133, %134
  br i1 %135, label %136, label %146

136:                                              ; preds = %125
  %137 = load float, ptr %11, align 4, !tbaa !46
  store float %137, ptr %12, align 4, !tbaa !46
  %138 = load ptr, ptr %8, align 8, !tbaa !48
  %139 = load ptr, ptr %9, align 8, !tbaa !48
  call void @llvm.memcpy.p0.p0.i64(ptr align 4 %139, ptr align 4 %138, i64 16, i1 false), !tbaa.struct !43
  %140 = load ptr, ptr %9, align 8, !tbaa !48
  %141 = load ptr, ptr %7, align 8, !tbaa !48
  %142 = call noundef nonnull align 4 dereferenceable(4) ptr @_ZNK9btVector34getZEv(ptr noundef nonnull align 4 dereferenceable(16) %141)
  %143 = load float, ptr %142, align 4, !tbaa !46
  %144 = fneg float %143
  call void @_ZN9btVector34setZEf(ptr noundef nonnull align 4 dereferenceable(16) %140, float noundef %144)
  %145 = load ptr, ptr %10, align 8, !tbaa !48
  call void @llvm.lifetime.start.p0(i64 4, ptr %28) #14
  store float 0.000000e+00, ptr %28, align 4, !tbaa !46
  call void @llvm.lifetime.start.p0(i64 4, ptr %29) #14
  store float 0.000000e+00, ptr %29, align 4, !tbaa !46
  call void @llvm.lifetime.start.p0(i64 4, ptr %30) #14
  store float -1.000000e+00, ptr %30, align 4, !tbaa !46
  call void @_ZN9btVector38setValueERKfS1_S1_(ptr noundef nonnull align 4 dereferenceable(16) %145, ptr noundef nonnull align 4 dereferenceable(4) %28, ptr noundef nonnull align 4 dereferenceable(4) %29, ptr noundef nonnull align 4 dereferenceable(4) %30)
  call void @llvm.lifetime.end.p0(i64 4, ptr %30) #14
  call void @llvm.lifetime.end.p0(i64 4, ptr %29) #14
  call void @llvm.lifetime.end.p0(i64 4, ptr %28) #14
  br label %146

146:                                              ; preds = %136, %125
  %147 = load float, ptr %12, align 4, !tbaa !46
  call void @llvm.lifetime.end.p0(i64 4, ptr %12) #14
  call void @llvm.lifetime.end.p0(i64 4, ptr %11) #14
  ret float %147
}