; Function Attrs: mustprogress nofree norecurse nosync nounwind willreturn memory(argmem: readwrite) uwtable
define dso_local noundef float @_ZN29btSphereBoxCollisionAlgorithm20getSpherePenetrationERK9btVector3S2_RS0_S3_(ptr noundef nonnull readnone align 8 captures(none) dereferenceable(33) %0, ptr noundef nonnull readonly align 4 captures(none) dereferenceable(16) %1, ptr noundef nonnull readonly align 4 captures(none) dereferenceable(16) %2, ptr noundef nonnull writeonly align 4 captures(none) dereferenceable(16) initializes((0, 4)) %3, ptr noundef nonnull writeonly align 4 captures(none) dereferenceable(16) initializes((0, 16)) %4) local_unnamed_addr #11 align 2 {
  %6 = load float, ptr %1, align 4, !tbaa !32
  %7 = load float, ptr %2, align 4, !tbaa !32
  %8 = fsub float %6, %7
  store float %6, ptr %3, align 4, !tbaa !32
  store float 1.000000e+00, ptr %4, align 4, !tbaa !32
  %9 = getelementptr inbounds nuw i8, ptr %4, i64 4
  store float 0.000000e+00, ptr %9, align 4, !tbaa !32
  %10 = getelementptr inbounds nuw i8, ptr %4, i64 8
  store float 0.000000e+00, ptr %10, align 4, !tbaa !32
  %11 = getelementptr inbounds nuw i8, ptr %4, i64 12
  store float 0.000000e+00, ptr %11, align 4, !tbaa !32
  %12 = load float, ptr %1, align 4, !tbaa !32
  %13 = load float, ptr %2, align 4, !tbaa !32
  %14 = fadd float %12, %13
  %15 = fcmp olt float %14, %8
  br i1 %15, label %16, label %19

16:                                               ; preds = %5
  tail call void @llvm.memcpy.p0.p0.i64(ptr noundef nonnull align 4 dereferenceable(16) %3, ptr noundef nonnull align 4 dereferenceable(16) %2, i64 16, i1 false), !tbaa.struct !29
  %17 = load float, ptr %1, align 4, !tbaa !32
  %18 = fneg float %17
  store float %18, ptr %3, align 4, !tbaa !32
  store float -1.000000e+00, ptr %4, align 4, !tbaa !32
  store float 0.000000e+00, ptr %9, align 4, !tbaa !32
  store float 0.000000e+00, ptr %10, align 4, !tbaa !32
  store float 0.000000e+00, ptr %11, align 4, !tbaa !32
  br label %19

19:                                               ; preds = %16, %5
  %.0 = phi float [ %14, %16 ], [ %8, %5 ]
  %20 = getelementptr inbounds nuw i8, ptr %1, i64 4
  %21 = load float, ptr %20, align 4, !tbaa !32
  %22 = getelementptr inbounds nuw i8, ptr %2, i64 4
  %23 = load float, ptr %22, align 4, !tbaa !32
  %24 = fsub float %21, %23
  %25 = fcmp olt float %24, %.0
  br i1 %25, label %26, label %29

26:                                               ; preds = %19
  tail call void @llvm.memcpy.p0.p0.i64(ptr noundef nonnull align 4 dereferenceable(16) %3, ptr noundef nonnull align 4 dereferenceable(16) %2, i64 16, i1 false), !tbaa.struct !29
  %27 = load float, ptr %20, align 4, !tbaa !32
  %28 = getelementptr inbounds nuw i8, ptr %3, i64 4
  store float %27, ptr %28, align 4, !tbaa !32
  store float 0.000000e+00, ptr %4, align 4, !tbaa !32
  store float 1.000000e+00, ptr %9, align 4, !tbaa !32
  store float 0.000000e+00, ptr %10, align 4, !tbaa !32
  store float 0.000000e+00, ptr %11, align 4, !tbaa !32
  %.pre = load float, ptr %20, align 4, !tbaa !32
  %.pre80 = load float, ptr %22, align 4, !tbaa !32
  br label %29

29:                                               ; preds = %26, %19
  %30 = phi float [ %.pre80, %26 ], [ %23, %19 ]
  %31 = phi float [ %.pre, %26 ], [ %21, %19 ]
  %.1 = phi float [ %24, %26 ], [ %.0, %19 ]
  %32 = fadd float %31, %30
  %33 = fcmp olt float %32, %.1
  br i1 %33, label %34, label %38

34:                                               ; preds = %29
  tail call void @llvm.memcpy.p0.p0.i64(ptr noundef nonnull align 4 dereferenceable(16) %3, ptr noundef nonnull align 4 dereferenceable(16) %2, i64 16, i1 false), !tbaa.struct !29
  %35 = load float, ptr %20, align 4, !tbaa !32
  %36 = fneg float %35
  %37 = getelementptr inbounds nuw i8, ptr %3, i64 4
  store float %36, ptr %37, align 4, !tbaa !32
  store float 0.000000e+00, ptr %4, align 4, !tbaa !32
  store float -1.000000e+00, ptr %9, align 4, !tbaa !32
  store float 0.000000e+00, ptr %10, align 4, !tbaa !32
  store float 0.000000e+00, ptr %11, align 4, !tbaa !32
  br label %38

38:                                               ; preds = %34, %29
  %.2 = phi float [ %32, %34 ], [ %.1, %29 ]
  %39 = getelementptr inbounds nuw i8, ptr %1, i64 8
  %40 = load float, ptr %39, align 4, !tbaa !32
  %41 = getelementptr inbounds nuw i8, ptr %2, i64 8
  %42 = load float, ptr %41, align 4, !tbaa !32
  %43 = fsub float %40, %42
  %44 = fcmp olt float %43, %.2
  br i1 %44, label %45, label %48

45:                                               ; preds = %38
  tail call void @llvm.memcpy.p0.p0.i64(ptr noundef nonnull align 4 dereferenceable(16) %3, ptr noundef nonnull align 4 dereferenceable(16) %2, i64 16, i1 false), !tbaa.struct !29
  %46 = load float, ptr %39, align 4, !tbaa !32
  %47 = getelementptr inbounds nuw i8, ptr %3, i64 8
  store float %46, ptr %47, align 4, !tbaa !32
  store float 0.000000e+00, ptr %4, align 4, !tbaa !32
  store float 0.000000e+00, ptr %9, align 4, !tbaa !32
  store float 1.000000e+00, ptr %10, align 4, !tbaa !32
  store float 0.000000e+00, ptr %11, align 4, !tbaa !32
  %.pre81 = load float, ptr %39, align 4, !tbaa !32
  %.pre82 = load float, ptr %41, align 4, !tbaa !32
  br label %48

48:                                               ; preds = %45, %38
  %49 = phi float [ %.pre82, %45 ], [ %42, %38 ]
  %50 = phi float [ %.pre81, %45 ], [ %40, %38 ]
  %.3 = phi float [ %43, %45 ], [ %.2, %38 ]
  %51 = fadd float %50, %49
  %52 = fcmp olt float %51, %.3
  br i1 %52, label %53, label %57

53:                                               ; preds = %48
  tail call void @llvm.memcpy.p0.p0.i64(ptr noundef nonnull align 4 dereferenceable(16) %3, ptr noundef nonnull align 4 dereferenceable(16) %2, i64 16, i1 false), !tbaa.struct !29
  %54 = load float, ptr %39, align 4, !tbaa !32
  %55 = fneg float %54
  %56 = getelementptr inbounds nuw i8, ptr %3, i64 8
  store float %55, ptr %56, align 4, !tbaa !32
  store float 0.000000e+00, ptr %4, align 4, !tbaa !32
  store float 0.000000e+00, ptr %9, align 4, !tbaa !32
  store float -1.000000e+00, ptr %10, align 4, !tbaa !32
  store float 0.000000e+00, ptr %11, align 4, !tbaa !32
  br label %57

57:                                               ; preds = %53, %48
  %.4 = phi float [ %51, %53 ], [ %.3, %48 ]
  ret float %.4
}